target datalayout = "e-m:e-p270:32:32-p271:32:32-p272:64:64-i64:64-i128:128-f80:128-n8:16:32:64-S128"
target triple = "x86_64-pc-linux-gnu"

; Function Attrs: nounwind sspstrong uwtable
define internal ptr @get_object_item(ptr noundef %0, ptr noundef %1, i32 noundef %2) #0 {
  %4 = alloca ptr, align 8
  %5 = alloca ptr, align 8
  %6 = alloca ptr, align 8
  %7 = alloca i32, align 4
  store ptr %0, ptr %5, align 8, !tbaa !3
  store ptr %1, ptr %6, align 8, !tbaa !15
  store i32 %2, ptr %7, align 4, !tbaa !19
  %8 = load i32, ptr %7, align 4, !tbaa !19
  %9 = icmp ne i32 %8, 0
  br i1 %9, label %10, label %14

10:                                               ; preds = %3
  %11 = load ptr, ptr %5, align 8, !tbaa !3
  %12 = load ptr, ptr %6, align 8, !tbaa !15
  %13 = call ptr @cJSON_GetObjectItemCaseSensitive(ptr noundef %11, ptr noundef %12)
  store ptr %13, ptr %4, align 8
  br label %18

14:                                               ; preds = %3
  %15 = load ptr, ptr %5, align 8, !tbaa !3
  %16 = load ptr, ptr %6, align 8, !tbaa !15
  %17 = call ptr @cJSON_GetObjectItem(ptr noundef %15, ptr noundef %16)
  store ptr %17, ptr %4, align 8
  br label %18

18:                                               ; preds = %14, %10
  %19 = load ptr, ptr %4, align 8
  ret ptr %19
}