; Function Attrs: nounwind sspstrong uwtable
define internal fastcc ptr @get_object_item(ptr noundef nonnull %0, ptr noundef %1, i32 noundef range(i32 0, 2) %2) unnamed_addr #0 {
  %.not = icmp eq i32 %2, 0
  br i1 %.not, label %6, label %4

4:                                                ; preds = %3
  %5 = tail call ptr @cJSON_GetObjectItemCaseSensitive(ptr noundef nonnull %0, ptr noundef %1) #13
  br label %8

6:                                                ; preds = %3
  %7 = tail call ptr @cJSON_GetObjectItem(ptr noundef nonnull %0, ptr noundef %1) #13
  br label %8

8:                                                ; preds = %6, %4
  %.0 = phi ptr [ %5, %4 ], [ %7, %6 ]
  ret ptr %.0
}